ccopy_reg
_reconstructor
p1
(cargparse
Namespace
p2
c__builtin__
object
p3
NtRp4
(dp5
S'num_epochs'
p6
I50
sS'grad_clip'
p7
F5
sS'rnn_size'
p8
I700
sS'data_dir'
p9
S'./data/gutenberg/'
p10
sS'vocab_size'
p11
I100
sS'learning_rate'
p12
F0.002
sS'save_dir'
p13
S'save'
p14
sS'seq_length'
p15
I50
sS'batch_size'
p16
I1000
sS'decay_rate'
p17
F0.96999999999999997
sS'init_from'
p18
NsS'log_dir'
p19
S'logs'
p20
sS'num_layers'
p21
I3
sS'input_keep_prob'
p22
F1
sS'model'
p23
S'lstm'
p24
sS'save_every'
p25
I1000
sS'output_keep_prob'
p26
F1
sb.